target datalayout = "e-m:e-p270:32:32-p271:32:32-p272:64:64-i64:64-i128:128-f80:128-n8:16:32:64-S128"
target triple = "x86_64-pc-linux-gnu"

%union.pthread_mutex_t = type { %struct.__pthread_mutex_s }
%struct.__pthread_mutex_s = type { i32, i32, i32, i32, i32, i16, i16, %struct.__pthread_internal_list }
%struct.__pthread_internal_list = type { ptr, ptr }
%struct.plugin_context_t = type { ptr, ptr, ptr }

@g_context_lock = internal global %union.pthread_mutex_t zeroinitializer, align 8
@.str.1 = private unnamed_addr constant [29 x i8] c"%s: pthread_mutex_lock(): %m\00", align 1
@g_context = internal global ptr null, align 8
@g_context_num = internal global i32 -1, align 4
@ops = internal global ptr null, align 8
@.str.9 = private unnamed_addr constant [31 x i8] c"%s: pthread_mutex_unlock(): %m\00", align 1
@__func__.hash_g_fini = private unnamed_addr constant [12 x i8] c"hash_g_fini\00", align 1
@.str.10 = private unnamed_addr constant [11 x i8] c"%s: %s: %s\00", align 1

; Function Attrs: nounwind uwtable
define dso_local i32 @hash_g_fini() #0 {
  %1 = alloca i32, align 4
  %2 = alloca i32, align 4
  %3 = alloca i32, align 4
  %4 = alloca i32, align 4
  %5 = alloca i32, align 4
  %6 = alloca i32, align 4
  call void @llvm.lifetime.start.p0(i64 4, ptr %1) #7
  store i32 0, ptr %1, align 4
  br label %7

7:                                                ; preds = %0
  call void @llvm.lifetime.start.p0(i64 4, ptr %2) #7
  %8 = call i32 @pthread_mutex_lock(ptr noundef @g_context_lock) #7
  store i32 %8, ptr %2, align 4
  %9 = load i32, ptr %2, align 4
  %10 = icmp ne i32 %9, 0
  br i1 %10, label %11, label %14

11:                                               ; preds = %7
  %12 = load i32, ptr %2, align 4
  %13 = call ptr @__errno_location() #8
  store i32 %12, ptr %13, align 4
  call void (ptr, ...) @fatal_abort(ptr noundef @.str.1, ptr noundef @__func__.hash_g_fini) #9
  unreachable

14:                                               ; preds = %7
  call void @llvm.lifetime.end.p0(i64 4, ptr %2) #7
  br label %15

15:                                               ; preds = %14
  br label %16

16:                                               ; preds = %15
  %17 = load ptr, ptr @g_context, align 8
  %18 = icmp ne ptr %17, null
  br i1 %18, label %20, label %19

19:                                               ; preds = %16
  br label %71

20:                                               ; preds = %16
  call void @llvm.lifetime.start.p0(i64 4, ptr %3) #7
  store i32 0, ptr %3, align 4
  br label %21

21:                                               ; preds = %67, %20
  %22 = load i32, ptr %3, align 4
  %23 = load i32, ptr @g_context_num, align 4
  %24 = icmp slt i32 %22, %23
  br i1 %24, label %26, label %25

25:                                               ; preds = %21
  store i32 5, ptr %4, align 4
  call void @llvm.lifetime.end.p0(i64 4, ptr %3) #7
  br label %70

26:                                               ; preds = %21
  call void @llvm.lifetime.start.p0(i64 4, ptr %5) #7
  %27 = load ptr, ptr @g_context, align 8
  %28 = load i32, ptr %3, align 4
  %29 = sext i32 %28 to i64
  %30 = getelementptr inbounds ptr, ptr %27, i64 %29
  %31 = load ptr, ptr %30, align 8
  %32 = icmp ne ptr %31, null
  br i1 %32, label %34, label %33

33:                                               ; preds = %26
  store i32 7, ptr %4, align 4
  br label %64

34:                                               ; preds = %26
  %35 = load ptr, ptr @g_context, align 8
  %36 = load i32, ptr %3, align 4
  %37 = sext i32 %36 to i64
  %38 = getelementptr inbounds ptr, ptr %35, i64 %37
  %39 = load ptr, ptr %38, align 8
  %40 = call i32 @plugin_context_destroy(ptr noundef %39)
  store i32 %40, ptr %5, align 4
  %41 = load i32, ptr %5, align 4
  %42 = icmp ne i32 %41, 0
  br i1 %42, label %43, label %63

43:                                               ; preds = %34
  br label %44

44:                                               ; preds = %43
  br label %45

45:                                               ; preds = %44
  %46 = call i32 @get_log_level()
  %47 = icmp sge i32 %46, 5
  br i1 %47, label %48, label %58

48:                                               ; preds = %45
  %49 = load ptr, ptr @g_context, align 8
  %50 = load i32, ptr %3, align 4
  %51 = sext i32 %50 to i64
  %52 = getelementptr inbounds ptr, ptr %49, i64 %51
  %53 = load ptr, ptr %52, align 8
  %54 = getelementptr inbounds nuw %struct.plugin_context_t, ptr %53, i32 0, i32 2
  %55 = load ptr, ptr %54, align 8
  %56 = load i32, ptr %5, align 4
  %57 = call ptr @slurm_strerror(i32 noundef %56)
  call void (i32, ptr, ...) @log_var(i32 noundef 5, ptr noundef @.str.10, ptr noundef @__func__.hash_g_fini, ptr noundef %55, ptr noundef %57)
  br label %58

58:                                               ; preds = %48, %45
  br label %59

59:                                               ; preds = %58
  br label %60

60:                                               ; preds = %59
  br label %61

61:                                               ; preds = %60
  br label %62

62:                                               ; preds = %61
  store i32 -1, ptr %1, align 4
  br label %63

63:                                               ; preds = %62, %34
  store i32 0, ptr %4, align 4
  br label %64

64:                                               ; preds = %63, %33
  call void @llvm.lifetime.end.p0(i64 4, ptr %5) #7
  %65 = load i32, ptr %4, align 4
  switch i32 %65, label %83 [
    i32 0, label %66
    i32 7, label %67
  ]

66:                                               ; preds = %64
  br label %67

67:                                               ; preds = %66, %64
  %68 = load i32, ptr %3, align 4
  %69 = add nsw i32 %68, 1
  store i32 %69, ptr %3, align 4
  br label %21, !llvm.loop !11

70:                                               ; preds = %25
  call void @slurm_xfree(ptr noundef @ops)
  call void @slurm_xfree(ptr noundef @g_context)
  store i32 -1, ptr @g_context_num, align 4
  br label %71

71:                                               ; preds = %70, %19
  br label %72

72:                                               ; preds = %71
  call void @llvm.lifetime.start.p0(i64 4, ptr %6) #7
  %73 = call i32 @pthread_mutex_unlock(ptr noundef @g_context_lock) #7
  store i32 %73, ptr %6, align 4
  %74 = load i32, ptr %6, align 4
  %75 = icmp ne i32 %74, 0
  br i1 %75, label %76, label %79

76:                                               ; preds = %72
  %77 = load i32, ptr %6, align 4
  %78 = call ptr @__errno_location() #8
  store i32 %77, ptr %78, align 4
  call void (ptr, ...) @fatal_abort(ptr noundef @.str.9, ptr noundef @__func__.hash_g_fini) #9
  unreachable

79:                                               ; preds = %72
  call void @llvm.lifetime.end.p0(i64 4, ptr %6) #7
  br label %80

80:                                               ; preds = %79
  br label %81

81:                                               ; preds = %80
  %82 = load i32, ptr %1, align 4
  store i32 1, ptr %4, align 4
  call void @llvm.lifetime.end.p0(i64 4, ptr %1) #7
  ret i32 %82

83:                                               ; preds = %64
  unreachable
}