; Function Attrs: nounwind uwtable
define dso_local range(i32 -1, 1) i32 @hash_g_fini() local_unnamed_addr #0 {
  %1 = tail call i32 @pthread_mutex_lock(ptr noundef nonnull @g_context_lock) #8
  %.not = icmp eq i32 %1, 0
  br i1 %.not, label %4, label %2

2:                                                ; preds = %0
  %3 = tail call ptr @__errno_location() #9
  store i32 %1, ptr %3, align 4
  tail call void (ptr, ...) @fatal_abort(ptr noundef nonnull @.str.1, ptr noundef nonnull @__func__.hash_g_fini) #10
  unreachable

4:                                                ; preds = %0
  %5 = load ptr, ptr @g_context, align 8
  %.not17 = icmp eq ptr %5, null
  br i1 %.not17, label %27, label %.preheader

.preheader:                                       ; preds = %4
  %6 = load i32, ptr @g_context_num, align 4
  %7 = icmp sgt i32 %6, 0
  br i1 %7, label %.lr.ph, label %._crit_edge

._crit_edge:                                      ; preds = %23, %.preheader
  %.0.lcssa = phi i32 [ 0, %.preheader ], [ %.1, %23 ]
  tail call void @slurm_xfree(ptr noundef nonnull @ops) #8
  tail call void @slurm_xfree(ptr noundef nonnull @g_context) #8
  store i32 -1, ptr @g_context_num, align 4
  br label %27

.lr.ph:                                           ; preds = %.preheader, %23
  %indvars.iv = phi i64 [ %indvars.iv.next, %23 ], [ 0, %.preheader ]
  %.022 = phi i32 [ %.1, %23 ], [ 0, %.preheader ]
  %8 = load ptr, ptr @g_context, align 8
  %9 = getelementptr inbounds nuw ptr, ptr %8, i64 %indvars.iv
  %10 = load ptr, ptr %9, align 8
  %.not19 = icmp eq ptr %10, null
  br i1 %.not19, label %23, label %11

11:                                               ; preds = %.lr.ph
  %12 = tail call i32 @plugin_context_destroy(ptr noundef nonnull %10) #8
  %.not20 = icmp eq i32 %12, 0
  br i1 %.not20, label %23, label %13

13:                                               ; preds = %11
  %14 = tail call i32 @get_log_level() #8
  %15 = icmp sgt i32 %14, 4
  br i1 %15, label %16, label %23

16:                                               ; preds = %13
  %17 = load ptr, ptr @g_context, align 8
  %18 = getelementptr inbounds nuw ptr, ptr %17, i64 %indvars.iv
  %19 = load ptr, ptr %18, align 8
  %20 = getelementptr inbounds nuw i8, ptr %19, i64 16
  %21 = load ptr, ptr %20, align 8
  %22 = tail call ptr @slurm_strerror(i32 noundef %12) #8
  tail call void (i32, ptr, ...) @log_var(i32 noundef 5, ptr noundef nonnull @.str.10, ptr noundef nonnull @__func__.hash_g_fini, ptr noundef %21, ptr noundef %22) #8
  br label %23

23:                                               ; preds = %11, %16, %13, %.lr.ph
  %.1 = phi i32 [ %.022, %.lr.ph ], [ %.022, %11 ], [ -1, %16 ], [ -1, %13 ]
  %indvars.iv.next = add nuw nsw i64 %indvars.iv, 1
  %24 = load i32, ptr @g_context_num, align 4
  %25 = sext i32 %24 to i64
  %26 = icmp slt i64 %indvars.iv.next, %25
  br i1 %26, label %.lr.ph, label %._crit_edge, !llvm.loop !8

27:                                               ; preds = %._crit_edge, %4
  %.3 = phi i32 [ %.0.lcssa, %._crit_edge ], [ 0, %4 ]
  %28 = tail call i32 @pthread_mutex_unlock(ptr noundef nonnull @g_context_lock) #8
  %.not18 = icmp eq i32 %28, 0
  br i1 %.not18, label %31, label %29

29:                                               ; preds = %27
  %30 = tail call ptr @__errno_location() #9
  store i32 %28, ptr %30, align 4
  tail call void (ptr, ...) @fatal_abort(ptr noundef nonnull @.str.9, ptr noundef nonnull @__func__.hash_g_fini) #10
  unreachable

31:                                               ; preds = %27
  ret i32 %.3
}